target datalayout = "e-m:e-p270:32:32-p271:32:32-p272:64:64-i64:64-i128:128-f80:128-n8:16:32:64-S128"
target triple = "x86_64-pc-linux-gnu"

%"class.sat::literal" = type { i32 }
%"class.sat::model_converter" = type { %class.vector, i32, %class.svector, ptr, %class.svector.1 }
%class.vector = type { ptr }
%class.svector = type { %class.vector.0 }
%class.vector.0 = type { ptr }
%class.svector.1 = type { %class.vector.2 }
%class.vector.2 = type { ptr }
%class.svector.26 = type { %class.vector.27 }
%class.vector.27 = type { ptr }
%"class.sat::model_converter::entry" = type { i32, i32, %class.svector.26, %class.svector.26, %class.ref_vector_core }
%class.ref_vector_core = type { %class.ptr_vector.50 }
%class.ptr_vector.50 = type { %class.vector.51 }
%class.vector.51 = type { ptr }
%"class.sat::model_converter::elim_stack" = type { i32, i32, %class.svector.1 }

@_ZN3sat12null_literalE = linkonce_odr hidden constant %"class.sat::literal" { i32 -2 }, comdat, align 4
@_ZN3satL7counterE = internal global i32 0, align 4

; Function Attrs: mustprogress nounwind uwtable
define linkonce_odr hidden void @_ZN3sat15model_converter10elim_stack7inc_refEv(ptr noundef nonnull align 8 dereferenceable(16) %0) #6 comdat align 2 {
  %2 = alloca ptr, align 8
  store ptr %0, ptr %2, align 8, !tbaa !201
  %3 = load ptr, ptr %2, align 8
  %4 = getelementptr inbounds nuw %"class.sat::model_converter::elim_stack", ptr %3, i32 0, i32 1
  %5 = load i32, ptr %4, align 4, !tbaa !222
  %6 = add i32 %5, 1
  store i32 %6, ptr %4, align 4, !tbaa !222
  ret void
}

; Function Attrs: inlinehint mustprogress nounwind uwtable
define linkonce_odr hidden void @_ZSt4swapIPSt4pairIjN3sat7literalEEENSt9enable_ifIXsr6__and_ISt6__not_ISt15__is_tuple_likeIT_EESt21is_move_constructibleIS8_ESt18is_move_assignableIS8_EEE5valueEvE4typeERS8_SH_(ptr noundef nonnull align 8 dereferenceable(8) %0, ptr noundef nonnull align 8 dereferenceable(8) %1) #9 comdat {
  %3 = alloca ptr, align 8
  %4 = alloca ptr, align 8
  %5 = alloca ptr, align 8
  store ptr %0, ptr %3, align 8, !tbaa !276
  store ptr %1, ptr %4, align 8, !tbaa !276
  call void @llvm.lifetime.start.p0(i64 8, ptr %5) #3
  %6 = load ptr, ptr %3, align 8, !tbaa !276
  %7 = load ptr, ptr %6, align 8, !tbaa !238
  store ptr %7, ptr %5, align 8, !tbaa !238
  %8 = load ptr, ptr %4, align 8, !tbaa !276
  %9 = load ptr, ptr %8, align 8, !tbaa !238
  %10 = load ptr, ptr %3, align 8, !tbaa !276
  store ptr %9, ptr %10, align 8, !tbaa !238
  %11 = load ptr, ptr %5, align 8, !tbaa !238
  %12 = load ptr, ptr %4, align 8, !tbaa !276
  store ptr %11, ptr %12, align 8, !tbaa !238
  call void @llvm.lifetime.end.p0(i64 8, ptr %5) #3
  ret void
}

; Function Attrs: mustprogress uwtable
define linkonce_odr hidden void @_ZN21ref_unmanaged_wrapperIN3sat15model_converter10elim_stackEE7inc_refEPS2_(ptr noundef %0) #4 comdat align 2 {
  %2 = alloca ptr, align 8
  store ptr %0, ptr %2, align 8, !tbaa !201
  %3 = load ptr, ptr %2, align 8, !tbaa !201
  %4 = icmp ne ptr %3, null
  br i1 %4, label %5, label %7

5:                                                ; preds = %1
  %6 = load ptr, ptr %2, align 8, !tbaa !201
  call void @_ZN3sat15model_converter10elim_stack7inc_refEv(ptr noundef nonnull align 8 dereferenceable(16) %6)
  br label %7

7:                                                ; preds = %5, %1
  ret void
}

; Function Attrs: mustprogress nounwind uwtable
define linkonce_odr hidden void @_ZN6vectorISt4pairIjN3sat7literalEELb0EjEC2EOS4_(ptr noundef nonnull align 8 dereferenceable(8) %0, ptr noundef nonnull align 8 dereferenceable(8) %1) unnamed_addr #6 comdat align 2 {
  %3 = alloca ptr, align 8
  %4 = alloca ptr, align 8
  store ptr %0, ptr %3, align 8, !tbaa !189
  store ptr %1, ptr %4, align 8, !tbaa !189
  %5 = load ptr, ptr %3, align 8
  %6 = getelementptr inbounds nuw %class.vector.2, ptr %5, i32 0, i32 0
  store ptr null, ptr %6, align 8, !tbaa !191
  %7 = getelementptr inbounds nuw %class.vector.2, ptr %5, i32 0, i32 0
  %8 = load ptr, ptr %4, align 8, !tbaa !189
  %9 = getelementptr inbounds nuw %class.vector.2, ptr %8, i32 0, i32 0
  call void @_ZSt4swapIPSt4pairIjN3sat7literalEEENSt9enable_ifIXsr6__and_ISt6__not_ISt15__is_tuple_likeIT_EESt21is_move_constructibleIS8_ESt18is_move_assignableIS8_EEE5valueEvE4typeERS8_SH_(ptr noundef nonnull align 8 dereferenceable(8) %7, ptr noundef nonnull align 8 dereferenceable(8) %9) #3
  ret void
}

; Function Attrs: mustprogress uwtable
define linkonce_odr hidden noundef nonnull align 8 dereferenceable(8) ptr @_ZN6vectorIPN3sat15model_converter10elim_stackELb0EjE9push_backERKS3_(ptr noundef nonnull align 8 dereferenceable(8) %0, ptr noundef nonnull align 8 dereferenceable(8) %1) #4 comdat align 2 {
  %3 = alloca ptr, align 8
  %4 = alloca ptr, align 8
  store ptr %0, ptr %3, align 8, !tbaa !271
  store ptr %1, ptr %4, align 8, !tbaa !274
  %5 = load ptr, ptr %3, align 8
  %6 = getelementptr inbounds nuw %class.vector.51, ptr %5, i32 0, i32 0
  %7 = load ptr, ptr %6, align 8, !tbaa !273
  %8 = icmp eq ptr %7, null
  br i1 %8, label %19, label %9

9:                                                ; preds = %2
  %10 = getelementptr inbounds nuw %class.vector.51, ptr %5, i32 0, i32 0
  %11 = load ptr, ptr %10, align 8, !tbaa !273
  %12 = getelementptr inbounds i32, ptr %11, i64 -1
  %13 = load i32, ptr %12, align 4, !tbaa !20
  %14 = getelementptr inbounds nuw %class.vector.51, ptr %5, i32 0, i32 0
  %15 = load ptr, ptr %14, align 8, !tbaa !273
  %16 = getelementptr inbounds i32, ptr %15, i64 -2
  %17 = load i32, ptr %16, align 4, !tbaa !20
  %18 = icmp eq i32 %13, %17
  br i1 %18, label %19, label %20

19:                                               ; preds = %9, %2
  call void @_ZN6vectorIPN3sat15model_converter10elim_stackELb0EjE13expand_vectorEv(ptr noundef nonnull align 8 dereferenceable(8) %5)
  br label %20

20:                                               ; preds = %19, %9
  %21 = getelementptr inbounds nuw %class.vector.51, ptr %5, i32 0, i32 0
  %22 = load ptr, ptr %21, align 8, !tbaa !273
  %23 = getelementptr inbounds nuw %class.vector.51, ptr %5, i32 0, i32 0
  %24 = load ptr, ptr %23, align 8, !tbaa !273
  %25 = getelementptr inbounds i32, ptr %24, i64 -1
  %26 = load i32, ptr %25, align 4, !tbaa !20
  %27 = zext i32 %26 to i64
  %28 = getelementptr inbounds nuw ptr, ptr %22, i64 %27
  %29 = load ptr, ptr %4, align 8, !tbaa !274
  %30 = load ptr, ptr %29, align 8, !tbaa !201
  store ptr %30, ptr %28, align 8, !tbaa !201
  %31 = getelementptr inbounds nuw %class.vector.51, ptr %5, i32 0, i32 0
  %32 = load ptr, ptr %31, align 8, !tbaa !273
  %33 = getelementptr inbounds i32, ptr %32, i64 -1
  %34 = load i32, ptr %33, align 4, !tbaa !20
  %35 = add i32 %34, 1
  store i32 %35, ptr %33, align 4, !tbaa !20
  ret ptr %5
}

; Function Attrs: mustprogress uwtable
define linkonce_odr hidden void @_ZN15ref_vector_coreIN3sat15model_converter10elim_stackE21ref_unmanaged_wrapperIS2_EE7inc_refEPS2_(ptr noundef nonnull align 8 dereferenceable(8) %0, ptr noundef %1) #4 comdat align 2 {
  %3 = alloca ptr, align 8
  %4 = alloca ptr, align 8
  store ptr %0, ptr %3, align 8, !tbaa !215
  store ptr %1, ptr %4, align 8, !tbaa !201
  %5 = load ptr, ptr %4, align 8, !tbaa !201
  call void @_ZN21ref_unmanaged_wrapperIN3sat15model_converter10elim_stackEE7inc_refEPS2_(ptr noundef %5)
  ret void
}

; Function Attrs: inlinehint mustprogress nounwind uwtable
define linkonce_odr hidden void @_ZN7svectorISt4pairIjN3sat7literalEEjEC2EOS4_(ptr noundef nonnull align 8 dereferenceable(8) %0, ptr noundef nonnull align 8 dereferenceable(8) %1) unnamed_addr #9 comdat align 2 {
  %3 = alloca ptr, align 8
  %4 = alloca ptr, align 8
  store ptr %0, ptr %3, align 8, !tbaa !179
  store ptr %1, ptr %4, align 8, !tbaa !179
  %5 = load ptr, ptr %3, align 8
  %6 = load ptr, ptr %4, align 8, !tbaa !179
  call void @_ZN6vectorISt4pairIjN3sat7literalEELb0EjEC2EOS4_(ptr noundef nonnull align 8 dereferenceable(8) %5, ptr noundef nonnull align 8 dereferenceable(8) %6) #3
  ret void
}

; Function Attrs: mustprogress nounwind uwtable
define linkonce_odr hidden void @_ZN6vectorISt4pairIjN3sat7literalEELb0EjE5resetEv(ptr noundef nonnull align 8 dereferenceable(8) %0) #6 comdat align 2 {
  %2 = alloca ptr, align 8
  store ptr %0, ptr %2, align 8, !tbaa !189
  %3 = load ptr, ptr %2, align 8
  %4 = getelementptr inbounds nuw %class.vector.2, ptr %3, i32 0, i32 0
  %5 = load ptr, ptr %4, align 8, !tbaa !191
  %6 = icmp ne ptr %5, null
  br i1 %6, label %7, label %11

7:                                                ; preds = %1
  %8 = getelementptr inbounds nuw %class.vector.2, ptr %3, i32 0, i32 0
  %9 = load ptr, ptr %8, align 8, !tbaa !191
  %10 = getelementptr inbounds i32, ptr %9, i64 -1
  store i32 0, ptr %10, align 4, !tbaa !20
  br label %11

11:                                               ; preds = %7, %1
  ret void
}

; Function Attrs: mustprogress uwtable
define linkonce_odr hidden noundef nonnull align 8 dereferenceable(8) ptr @_ZN15ref_vector_coreIN3sat15model_converter10elim_stackE21ref_unmanaged_wrapperIS2_EE9push_backEPS2_(ptr noundef nonnull align 8 dereferenceable(8) %0, ptr noundef %1) #4 comdat align 2 {
  %3 = alloca ptr, align 8
  %4 = alloca ptr, align 8
  store ptr %0, ptr %3, align 8, !tbaa !215
  store ptr %1, ptr %4, align 8, !tbaa !201
  %5 = load ptr, ptr %3, align 8
  %6 = load ptr, ptr %4, align 8, !tbaa !201
  call void @_ZN15ref_vector_coreIN3sat15model_converter10elim_stackE21ref_unmanaged_wrapperIS2_EE7inc_refEPS2_(ptr noundef nonnull align 8 dereferenceable(8) %5, ptr noundef %6)
  %7 = getelementptr inbounds nuw %class.ref_vector_core, ptr %5, i32 0, i32 0
  %8 = call noundef nonnull align 8 dereferenceable(8) ptr @_ZN6vectorIPN3sat15model_converter10elim_stackELb0EjE9push_backERKS3_(ptr noundef nonnull align 8 dereferenceable(8) %7, ptr noundef nonnull align 8 dereferenceable(8) %4)
  ret ptr %5
}

; Function Attrs: mustprogress nounwind uwtable
define linkonce_odr hidden void @_ZN3sat15model_converter10elim_stackC2EO7svectorISt4pairIjNS_7literalEEjE(ptr noundef nonnull align 8 dereferenceable(16) %0, ptr noundef nonnull align 8 dereferenceable(8) %1) unnamed_addr #6 comdat align 2 {
  %3 = alloca ptr, align 8
  %4 = alloca ptr, align 8
  store ptr %0, ptr %3, align 8, !tbaa !201
  store ptr %1, ptr %4, align 8, !tbaa !179
  %5 = load ptr, ptr %3, align 8
  %6 = getelementptr inbounds nuw %"class.sat::model_converter::elim_stack", ptr %5, i32 0, i32 0
  store i32 0, ptr %6, align 8, !tbaa !220
  %7 = getelementptr inbounds nuw %"class.sat::model_converter::elim_stack", ptr %5, i32 0, i32 1
  store i32 0, ptr %7, align 4, !tbaa !222
  %8 = getelementptr inbounds nuw %"class.sat::model_converter::elim_stack", ptr %5, i32 0, i32 2
  %9 = load ptr, ptr %4, align 8, !tbaa !179
  call void @_ZN7svectorISt4pairIjN3sat7literalEEjEC2EOS4_(ptr noundef nonnull align 8 dereferenceable(8) %8, ptr noundef nonnull align 8 dereferenceable(8) %9) #3
  %10 = load i32, ptr @_ZN3satL7counterE, align 4, !tbaa !20
  %11 = add i32 %10, 1
  store i32 %11, ptr @_ZN3satL7counterE, align 4, !tbaa !20
  %12 = getelementptr inbounds nuw %"class.sat::model_converter::elim_stack", ptr %5, i32 0, i32 0
  store i32 %11, ptr %12, align 8, !tbaa !220
  ret void
}

; Function Attrs: mustprogress nounwind uwtable
define linkonce_odr hidden noundef zeroext i1 @_ZNK6vectorISt4pairIjN3sat7literalEELb0EjE5emptyEv(ptr noundef nonnull align 8 dereferenceable(8) %0) #6 comdat align 2 {
  %2 = alloca ptr, align 8
  store ptr %0, ptr %2, align 8, !tbaa !189
  %3 = load ptr, ptr %2, align 8
  %4 = getelementptr inbounds nuw %class.vector.2, ptr %3, i32 0, i32 0
  %5 = load ptr, ptr %4, align 8, !tbaa !191
  %6 = icmp eq ptr %5, null
  br i1 %6, label %13, label %7

7:                                                ; preds = %1
  %8 = getelementptr inbounds nuw %class.vector.2, ptr %3, i32 0, i32 0
  %9 = load ptr, ptr %8, align 8, !tbaa !191
  %10 = getelementptr inbounds i32, ptr %9, i64 -1
  %11 = load i32, ptr %10, align 4, !tbaa !20
  %12 = icmp eq i32 %11, 0
  br label %13

13:                                               ; preds = %7, %1
  %14 = phi i1 [ true, %1 ], [ %12, %7 ]
  ret i1 %14
}

; Function Attrs: mustprogress nounwind uwtable
define linkonce_odr hidden noundef nonnull align 8 dereferenceable(8) ptr @_ZN3sat15model_converter6stackvEv(ptr noundef nonnull align 8 dereferenceable(40) %0) #6 comdat align 2 {
  %2 = alloca ptr, align 8
  store ptr %0, ptr %2, align 8, !tbaa !3
  %3 = load ptr, ptr %2, align 8
  %4 = getelementptr inbounds nuw %"class.sat::model_converter", ptr %3, i32 0, i32 4
  ret ptr %4
}

; Function Attrs: mustprogress uwtable
define hidden void @_ZN3sat15model_converter14add_elim_stackERNS0_5entryE(ptr noundef nonnull align 8 dereferenceable(40) %0, ptr noundef nonnull align 8 dereferenceable(32) %1) #4 align 2 {
  %3 = alloca ptr, align 8
  %4 = alloca ptr, align 8
  store ptr %0, ptr %3, align 8, !tbaa !3
  store ptr %1, ptr %4, align 8, !tbaa !200
  %5 = load ptr, ptr %3, align 8
  %6 = load ptr, ptr %4, align 8, !tbaa !200
  %7 = getelementptr inbounds nuw %"class.sat::model_converter::entry", ptr %6, i32 0, i32 4
  %8 = call noundef nonnull align 8 dereferenceable(8) ptr @_ZN3sat15model_converter6stackvEv(ptr noundef nonnull align 8 dereferenceable(40) %5)
  %9 = call noundef zeroext i1 @_ZNK6vectorISt4pairIjN3sat7literalEELb0EjE5emptyEv(ptr noundef nonnull align 8 dereferenceable(8) %8)
  br i1 %9, label %10, label %11

10:                                               ; preds = %2
  br label %14

11:                                               ; preds = %2
  %12 = call noalias noundef ptr @_ZN6memory8allocateEm(i64 noundef 16)
  %13 = getelementptr inbounds nuw %"class.sat::model_converter", ptr %5, i32 0, i32 4
  call void @_ZN3sat15model_converter10elim_stackC2EO7svectorISt4pairIjNS_7literalEEjE(ptr noundef nonnull align 8 dereferenceable(16) %12, ptr noundef nonnull align 8 dereferenceable(8) %13)
  br label %14

14:                                               ; preds = %11, %10
  %15 = phi ptr [ null, %10 ], [ %12, %11 ]
  %16 = call noundef nonnull align 8 dereferenceable(8) ptr @_ZN15ref_vector_coreIN3sat15model_converter10elim_stackE21ref_unmanaged_wrapperIS2_EE9push_backEPS2_(ptr noundef nonnull align 8 dereferenceable(8) %7, ptr noundef %15)
  %17 = call noundef nonnull align 8 dereferenceable(8) ptr @_ZN3sat15model_converter6stackvEv(ptr noundef nonnull align 8 dereferenceable(40) %5)
  call void @_ZN6vectorISt4pairIjN3sat7literalEELb0EjE5resetEv(ptr noundef nonnull align 8 dereferenceable(8) %17)
  ret void
}

; Function Attrs: mustprogress uwtable
define linkonce_odr hidden noundef nonnull align 8 dereferenceable(8) ptr @_ZN6vectorIN3sat7literalELb0EjE9push_backERKS1_(ptr noundef nonnull align 8 dereferenceable(8) %0, ptr noundef nonnull align 4 dereferenceable(4) %1) #4 comdat align 2 {
  %3 = alloca ptr, align 8
  %4 = alloca ptr, align 8
  store ptr %0, ptr %3, align 8, !tbaa !192
  store ptr %1, ptr %4, align 8, !tbaa !195
  %5 = load ptr, ptr %3, align 8
  %6 = getelementptr inbounds nuw %class.vector.27, ptr %5, i32 0, i32 0
  %7 = load ptr, ptr %6, align 8, !tbaa !194
  %8 = icmp eq ptr %7, null
  br i1 %8, label %19, label %9

9:                                                ; preds = %2
  %10 = getelementptr inbounds nuw %class.vector.27, ptr %5, i32 0, i32 0
  %11 = load ptr, ptr %10, align 8, !tbaa !194
  %12 = getelementptr inbounds i32, ptr %11, i64 -1
  %13 = load i32, ptr %12, align 4, !tbaa !20
  %14 = getelementptr inbounds nuw %class.vector.27, ptr %5, i32 0, i32 0
  %15 = load ptr, ptr %14, align 8, !tbaa !194
  %16 = getelementptr inbounds i32, ptr %15, i64 -2
  %17 = load i32, ptr %16, align 4, !tbaa !20
  %18 = icmp eq i32 %13, %17
  br i1 %18, label %19, label %20

19:                                               ; preds = %9, %2
  call void @_ZN6vectorIN3sat7literalELb0EjE13expand_vectorEv(ptr noundef nonnull align 8 dereferenceable(8) %5)
  br label %20

20:                                               ; preds = %19, %9
  %21 = getelementptr inbounds nuw %class.vector.27, ptr %5, i32 0, i32 0
  %22 = load ptr, ptr %21, align 8, !tbaa !194
  %23 = getelementptr inbounds nuw %class.vector.27, ptr %5, i32 0, i32 0
  %24 = load ptr, ptr %23, align 8, !tbaa !194
  %25 = getelementptr inbounds i32, ptr %24, i64 -1
  %26 = load i32, ptr %25, align 4, !tbaa !20
  %27 = zext i32 %26 to i64
  %28 = getelementptr inbounds nuw %"class.sat::literal", ptr %22, i64 %27
  %29 = load ptr, ptr %4, align 8, !tbaa !195
  call void @llvm.memcpy.p0.p0.i64(ptr align 4 %28, ptr align 4 %29, i64 4, i1 false), !tbaa.struct !183
  %30 = getelementptr inbounds nuw %class.vector.27, ptr %5, i32 0, i32 0
  %31 = load ptr, ptr %30, align 8, !tbaa !194
  %32 = getelementptr inbounds i32, ptr %31, i64 -1
  %33 = load i32, ptr %32, align 4, !tbaa !20
  %34 = add i32 %33, 1
  store i32 %34, ptr %32, align 4, !tbaa !20
  ret ptr %5
}

; Function Attrs: mustprogress uwtable
define hidden void @_ZN3sat15model_converter6insertERNS0_5entryENS_7literalES3_(ptr noundef nonnull align 8 dereferenceable(40) %0, ptr noundef nonnull align 8 dereferenceable(32) %1, i32 %2, i32 %3) #4 align 2 {
  %5 = alloca %"class.sat::literal", align 4
  %6 = alloca %"class.sat::literal", align 4
  %7 = alloca ptr, align 8
  %8 = alloca ptr, align 8
  %9 = getelementptr inbounds nuw %"class.sat::literal", ptr %5, i32 0, i32 0
  store i32 %2, ptr %9, align 4
  %10 = getelementptr inbounds nuw %"class.sat::literal", ptr %6, i32 0, i32 0
  store i32 %3, ptr %10, align 4
  store ptr %0, ptr %7, align 8, !tbaa !3
  store ptr %1, ptr %8, align 8, !tbaa !200
  %11 = load ptr, ptr %7, align 8
  %12 = load ptr, ptr %8, align 8, !tbaa !200
  %13 = getelementptr inbounds nuw %"class.sat::model_converter::entry", ptr %12, i32 0, i32 2
  %14 = call noundef nonnull align 8 dereferenceable(8) ptr @_ZN6vectorIN3sat7literalELb0EjE9push_backERKS1_(ptr noundef nonnull align 8 dereferenceable(8) %13, ptr noundef nonnull align 4 dereferenceable(4) %5)
  %15 = load ptr, ptr %8, align 8, !tbaa !200
  %16 = getelementptr inbounds nuw %"class.sat::model_converter::entry", ptr %15, i32 0, i32 2
  %17 = call noundef nonnull align 8 dereferenceable(8) ptr @_ZN6vectorIN3sat7literalELb0EjE9push_backERKS1_(ptr noundef nonnull align 8 dereferenceable(8) %16, ptr noundef nonnull align 4 dereferenceable(4) %6)
  %18 = load ptr, ptr %8, align 8, !tbaa !200
  %19 = getelementptr inbounds nuw %"class.sat::model_converter::entry", ptr %18, i32 0, i32 2
  %20 = call noundef nonnull align 8 dereferenceable(8) ptr @_ZN6vectorIN3sat7literalELb0EjE9push_backERKS1_(ptr noundef nonnull align 8 dereferenceable(8) %19, ptr noundef nonnull align 4 dereferenceable(4) @_ZN3sat12null_literalE)
  %21 = load ptr, ptr %8, align 8, !tbaa !200
  call void @_ZN3sat15model_converter14add_elim_stackERNS0_5entryE(ptr noundef nonnull align 8 dereferenceable(40) %11, ptr noundef nonnull align 8 dereferenceable(32) %21)
  ret void
}