; Function Attrs: mustprogress uwtable
define hidden void @_ZN3sat15model_converter6insertERNS0_5entryENS_7literalES3_(ptr noundef nonnull align 8 captures(none) dereferenceable(40) %0, ptr noundef nonnull align 8 dereferenceable(32) %1, i32 %2, i32 %3) local_unnamed_addr #3 align 2 {
  %5 = getelementptr inbounds nuw i8, ptr %1, i64 8
  %6 = load ptr, ptr %5, align 8, !tbaa !11
  %7 = icmp eq ptr %6, null
  br i1 %7, label %14, label %8

8:                                                ; preds = %4
  %9 = getelementptr inbounds i8, ptr %6, i64 -4
  %10 = load i32, ptr %9, align 4, !tbaa !9
  %11 = getelementptr inbounds i8, ptr %6, i64 -8
  %12 = load i32, ptr %11, align 4, !tbaa !9
  %13 = icmp eq i32 %10, %12
  br i1 %13, label %14, label %15

14:                                               ; preds = %8, %4
  tail call void @_ZN6vectorIN3sat7literalELb0EjE13expand_vectorEv(ptr noundef nonnull align 8 dereferenceable(8) %5)
  %.pre.i = load ptr, ptr %5, align 8, !tbaa !11
  %.phi.trans.insert.i = getelementptr inbounds i8, ptr %.pre.i, i64 -4
  %.pre2.i = load i32, ptr %.phi.trans.insert.i, align 4, !tbaa !9
  br label %15

15:                                               ; preds = %14, %8
  %16 = phi i32 [ %.pre2.i, %14 ], [ %10, %8 ]
  %17 = phi ptr [ %.pre.i, %14 ], [ %6, %8 ]
  %18 = getelementptr inbounds i8, ptr %17, i64 -4
  %19 = zext i32 %16 to i64
  %20 = getelementptr inbounds nuw %"class.sat::literal", ptr %17, i64 %19
  store i32 %2, ptr %20, align 4, !tbaa !9
  %21 = add i32 %16, 1
  store i32 %21, ptr %18, align 4, !tbaa !9
  %22 = getelementptr inbounds i8, ptr %17, i64 -8
  %23 = load i32, ptr %22, align 4, !tbaa !9
  %24 = icmp eq i32 %21, %23
  br i1 %24, label %25, label %26

25:                                               ; preds = %15
  tail call void @_ZN6vectorIN3sat7literalELb0EjE13expand_vectorEv(ptr noundef nonnull align 8 dereferenceable(8) %5)
  %.pre.i5 = load ptr, ptr %5, align 8, !tbaa !11
  %.phi.trans.insert.i6 = getelementptr inbounds i8, ptr %.pre.i5, i64 -4
  %.pre2.i7 = load i32, ptr %.phi.trans.insert.i6, align 4, !tbaa !9
  br label %26

26:                                               ; preds = %25, %15
  %27 = phi i32 [ %.pre2.i7, %25 ], [ %21, %15 ]
  %28 = phi ptr [ %.pre.i5, %25 ], [ %17, %15 ]
  %29 = getelementptr inbounds i8, ptr %28, i64 -4
  %30 = zext i32 %27 to i64
  %31 = getelementptr inbounds nuw %"class.sat::literal", ptr %28, i64 %30
  store i32 %3, ptr %31, align 4, !tbaa !9
  %32 = add i32 %27, 1
  store i32 %32, ptr %29, align 4, !tbaa !9
  %33 = getelementptr inbounds i8, ptr %28, i64 -8
  %34 = load i32, ptr %33, align 4, !tbaa !9
  %35 = icmp eq i32 %32, %34
  br i1 %35, label %36, label %_ZN6vectorIN3sat7literalELb0EjE9push_backERKS1_.exit12

36:                                               ; preds = %26
  tail call void @_ZN6vectorIN3sat7literalELb0EjE13expand_vectorEv(ptr noundef nonnull align 8 dereferenceable(8) %5)
  %.pre.i9 = load ptr, ptr %5, align 8, !tbaa !11
  %.phi.trans.insert.i10 = getelementptr inbounds i8, ptr %.pre.i9, i64 -4
  %.pre2.i11 = load i32, ptr %.phi.trans.insert.i10, align 4, !tbaa !9
  br label %_ZN6vectorIN3sat7literalELb0EjE9push_backERKS1_.exit12

_ZN6vectorIN3sat7literalELb0EjE9push_backERKS1_.exit12: ; preds = %26, %36
  %37 = phi i32 [ %.pre2.i11, %36 ], [ %32, %26 ]
  %38 = phi ptr [ %.pre.i9, %36 ], [ %28, %26 ]
  %39 = getelementptr inbounds i8, ptr %38, i64 -4
  %40 = zext i32 %37 to i64
  %41 = getelementptr inbounds nuw %"class.sat::literal", ptr %38, i64 %40
  store i32 -2, ptr %41, align 4, !tbaa !9
  %42 = add i32 %37, 1
  store i32 %42, ptr %39, align 4, !tbaa !9
  %43 = getelementptr inbounds nuw i8, ptr %0, i64 32
  %44 = load ptr, ptr %43, align 8, !tbaa !180
  %45 = icmp eq ptr %44, null
  br i1 %45, label %_ZN15ref_vector_coreIN3sat15model_converter10elim_stackE21ref_unmanaged_wrapperIS2_EE7inc_refEPS2_.exit.i.i, label %_ZNK6vectorISt4pairIjN3sat7literalEELb0EjE5emptyEv.exit.i

_ZNK6vectorISt4pairIjN3sat7literalEELb0EjE5emptyEv.exit.i: ; preds = %_ZN6vectorIN3sat7literalELb0EjE9push_backERKS1_.exit12
  %46 = getelementptr inbounds i8, ptr %44, i64 -4
  %47 = load i32, ptr %46, align 4, !tbaa !9
  %48 = icmp eq i32 %47, 0
  br i1 %48, label %_ZN15ref_vector_coreIN3sat15model_converter10elim_stackE21ref_unmanaged_wrapperIS2_EE7inc_refEPS2_.exit.i.i, label %49

49:                                               ; preds = %_ZNK6vectorISt4pairIjN3sat7literalEELb0EjE5emptyEv.exit.i
  %50 = tail call noalias noundef ptr @_ZN6memory8allocateEm(i64 noundef 16)
  %51 = getelementptr inbounds nuw i8, ptr %50, i64 8
  %52 = load ptr, ptr %43, align 8, !tbaa !205
  store ptr %52, ptr %51, align 8, !tbaa !205
  store ptr null, ptr %43, align 8, !tbaa !205
  %53 = load i32, ptr @_ZN3satL7counterE, align 4, !tbaa !9
  %54 = add i32 %53, 1
  store i32 %54, ptr @_ZN3satL7counterE, align 4, !tbaa !9
  store i32 %54, ptr %50, align 8, !tbaa !206
  %55 = getelementptr inbounds nuw i8, ptr %50, i64 4
  store i32 1, ptr %55, align 4, !tbaa !208
  br label %_ZN15ref_vector_coreIN3sat15model_converter10elim_stackE21ref_unmanaged_wrapperIS2_EE7inc_refEPS2_.exit.i.i

_ZN15ref_vector_coreIN3sat15model_converter10elim_stackE21ref_unmanaged_wrapperIS2_EE7inc_refEPS2_.exit.i.i: ; preds = %49, %_ZNK6vectorISt4pairIjN3sat7literalEELb0EjE5emptyEv.exit.i, %_ZN6vectorIN3sat7literalELb0EjE9push_backERKS1_.exit12
  %56 = phi ptr [ null, %49 ], [ %44, %_ZNK6vectorISt4pairIjN3sat7literalEELb0EjE5emptyEv.exit.i ], [ null, %_ZN6vectorIN3sat7literalELb0EjE9push_backERKS1_.exit12 ]
  %57 = phi ptr [ %50, %49 ], [ null, %_ZNK6vectorISt4pairIjN3sat7literalEELb0EjE5emptyEv.exit.i ], [ null, %_ZN6vectorIN3sat7literalELb0EjE9push_backERKS1_.exit12 ]
  %58 = getelementptr inbounds nuw i8, ptr %1, i64 24
  %59 = load ptr, ptr %58, align 8, !tbaa !197
  %60 = icmp eq ptr %59, null
  br i1 %60, label %67, label %61

61:                                               ; preds = %_ZN15ref_vector_coreIN3sat15model_converter10elim_stackE21ref_unmanaged_wrapperIS2_EE7inc_refEPS2_.exit.i.i
  %62 = getelementptr inbounds i8, ptr %59, i64 -4
  %63 = load i32, ptr %62, align 4, !tbaa !9
  %64 = getelementptr inbounds i8, ptr %59, i64 -8
  %65 = load i32, ptr %64, align 4, !tbaa !9
  %66 = icmp eq i32 %63, %65
  br i1 %66, label %67, label %_ZN15ref_vector_coreIN3sat15model_converter10elim_stackE21ref_unmanaged_wrapperIS2_EE9push_backEPS2_.exit.i

67:                                               ; preds = %61, %_ZN15ref_vector_coreIN3sat15model_converter10elim_stackE21ref_unmanaged_wrapperIS2_EE7inc_refEPS2_.exit.i.i
  tail call void @_ZN6vectorIPN3sat15model_converter10elim_stackELb0EjE13expand_vectorEv(ptr noundef nonnull align 8 dereferenceable(8) %58)
  %.pre.i.i.i = load ptr, ptr %58, align 8, !tbaa !197
  %.phi.trans.insert.i.i.i = getelementptr inbounds i8, ptr %.pre.i.i.i, i64 -4
  %.pre2.i.i.i = load i32, ptr %.phi.trans.insert.i.i.i, align 4, !tbaa !9
  %.pre.i13 = load ptr, ptr %43, align 8, !tbaa !180
  br label %_ZN15ref_vector_coreIN3sat15model_converter10elim_stackE21ref_unmanaged_wrapperIS2_EE9push_backEPS2_.exit.i

_ZN15ref_vector_coreIN3sat15model_converter10elim_stackE21ref_unmanaged_wrapperIS2_EE9push_backEPS2_.exit.i: ; preds = %67, %61
  %68 = phi ptr [ %.pre.i13, %67 ], [ %56, %61 ]
  %69 = phi i32 [ %.pre2.i.i.i, %67 ], [ %63, %61 ]
  %70 = phi ptr [ %.pre.i.i.i, %67 ], [ %59, %61 ]
  %71 = getelementptr inbounds i8, ptr %70, i64 -4
  %72 = zext i32 %69 to i64
  %73 = getelementptr inbounds nuw ptr, ptr %70, i64 %72
  store ptr %57, ptr %73, align 8, !tbaa !198
  %74 = add i32 %69, 1
  store i32 %74, ptr %71, align 4, !tbaa !9
  %.not.i.i = icmp eq ptr %68, null
  br i1 %.not.i.i, label %_ZN3sat15model_converter14add_elim_stackERNS0_5entryE.exit, label %75

75:                                               ; preds = %_ZN15ref_vector_coreIN3sat15model_converter10elim_stackE21ref_unmanaged_wrapperIS2_EE9push_backEPS2_.exit.i
  %76 = getelementptr inbounds i8, ptr %68, i64 -4
  store i32 0, ptr %76, align 4, !tbaa !9
  br label %_ZN3sat15model_converter14add_elim_stackERNS0_5entryE.exit

_ZN3sat15model_converter14add_elim_stackERNS0_5entryE.exit: ; preds = %_ZN15ref_vector_coreIN3sat15model_converter10elim_stackE21ref_unmanaged_wrapperIS2_EE9push_backEPS2_.exit.i, %75
  ret void
}